target datalayout = "e-m:e-p270:32:32-p271:32:32-p272:64:64-i64:64-i128:128-f80:128-n8:16:32:64-S128"
target triple = "x86_64-pc-linux-gnu"

%struct.mbedtls_ecp_point = type { %struct.mbedtls_mpi, %struct.mbedtls_mpi, %struct.mbedtls_mpi }
%struct.mbedtls_mpi = type { ptr, i16, i16 }
%struct.mbedtls_ecp_group = type { i32, %struct.mbedtls_mpi, %struct.mbedtls_mpi, %struct.mbedtls_mpi, %struct.mbedtls_ecp_point, %struct.mbedtls_mpi, i64, i64, i32, ptr, ptr, ptr, ptr, ptr, i64 }
%struct.mbedtls_ecp_keypair = type { %struct.mbedtls_ecp_group, %struct.mbedtls_mpi, %struct.mbedtls_ecp_point }

@.str = private unnamed_addr constant [119 x i8] c"generated/home/dtcxzyw/WorkSpace/Projects/compilers/llvm-opt-benchmark/bench/lief/bench_build/mbed_src/library/ecdsa.c\00", align 1

; Function Attrs: inlinehint nounwind uwtable
define internal i32 @mbedtls_error_add(i32 noundef %0, i32 noundef %1, ptr noundef %2, i32 noundef %3) #3 {
  %5 = alloca i32, align 4
  %6 = alloca i32, align 4
  %7 = alloca ptr, align 8
  %8 = alloca i32, align 4
  store i32 %0, ptr %5, align 4, !tbaa !3
  store i32 %1, ptr %6, align 4, !tbaa !3
  store ptr %2, ptr %7, align 8, !tbaa !12
  store i32 %3, ptr %8, align 4, !tbaa !3
  %9 = load i32, ptr %5, align 4, !tbaa !3
  %10 = load i32, ptr %6, align 4, !tbaa !3
  %11 = add nsw i32 %9, %10
  ret i32 %11
}

; Function Attrs: nounwind uwtable
define hidden i32 @mbedtls_ecdsa_read_signature_restartable(ptr noundef %0, ptr noundef %1, i64 noundef %2, ptr noundef %3, i64 noundef %4, ptr noundef %5) #0 {
  %7 = alloca ptr, align 8
  %8 = alloca ptr, align 8
  %9 = alloca i64, align 8
  %10 = alloca ptr, align 8
  %11 = alloca i64, align 8
  %12 = alloca ptr, align 8
  %13 = alloca i32, align 4
  %14 = alloca ptr, align 8
  %15 = alloca ptr, align 8
  %16 = alloca i64, align 8
  %17 = alloca %struct.mbedtls_mpi, align 8
  %18 = alloca %struct.mbedtls_mpi, align 8
  store ptr %0, ptr %7, align 8, !tbaa !36
  store ptr %1, ptr %8, align 8, !tbaa !12
  store i64 %2, ptr %9, align 8, !tbaa !14
  store ptr %3, ptr %10, align 8, !tbaa !12
  store i64 %4, ptr %11, align 8, !tbaa !14
  store ptr %5, ptr %12, align 8, !tbaa !16
  call void @llvm.lifetime.start.p0(i64 4, ptr %13) #6
  store i32 -110, ptr %13, align 4, !tbaa !3
  call void @llvm.lifetime.start.p0(i64 8, ptr %14) #6
  %19 = load ptr, ptr %10, align 8, !tbaa !12
  store ptr %19, ptr %14, align 8, !tbaa !12
  call void @llvm.lifetime.start.p0(i64 8, ptr %15) #6
  %20 = load ptr, ptr %10, align 8, !tbaa !12
  %21 = load i64, ptr %11, align 8, !tbaa !14
  %22 = getelementptr inbounds nuw i8, ptr %20, i64 %21
  store ptr %22, ptr %15, align 8, !tbaa !12
  call void @llvm.lifetime.start.p0(i64 8, ptr %16) #6
  call void @llvm.lifetime.start.p0(i64 16, ptr %17) #6
  call void @llvm.lifetime.start.p0(i64 16, ptr %18) #6
  call void @mbedtls_mpi_init(ptr noundef %17)
  call void @mbedtls_mpi_init(ptr noundef %18)
  %23 = load ptr, ptr %15, align 8, !tbaa !12
  %24 = call i32 @mbedtls_asn1_get_tag(ptr noundef %14, ptr noundef %23, ptr noundef %16, i32 noundef 48)
  store i32 %24, ptr %13, align 4, !tbaa !3
  %25 = icmp ne i32 %24, 0
  br i1 %25, label %26, label %29

26:                                               ; preds = %6
  %27 = load i32, ptr %13, align 4, !tbaa !3
  %28 = add nsw i32 %27, -20352
  store i32 %28, ptr %13, align 4, !tbaa !3
  br label %65

29:                                               ; preds = %6
  %30 = load ptr, ptr %14, align 8, !tbaa !12
  %31 = load i64, ptr %16, align 8, !tbaa !14
  %32 = getelementptr inbounds nuw i8, ptr %30, i64 %31
  %33 = load ptr, ptr %15, align 8, !tbaa !12
  %34 = icmp ne ptr %32, %33
  br i1 %34, label %35, label %37

35:                                               ; preds = %29
  %36 = call i32 @mbedtls_error_add(i32 noundef -20352, i32 noundef -102, ptr noundef @.str, i32 noundef 735)
  store i32 %36, ptr %13, align 4, !tbaa !3
  br label %65

37:                                               ; preds = %29
  %38 = load ptr, ptr %15, align 8, !tbaa !12
  %39 = call i32 @mbedtls_asn1_get_mpi(ptr noundef %14, ptr noundef %38, ptr noundef %17)
  store i32 %39, ptr %13, align 4, !tbaa !3
  %40 = icmp ne i32 %39, 0
  br i1 %40, label %45, label %41

41:                                               ; preds = %37
  %42 = load ptr, ptr %15, align 8, !tbaa !12
  %43 = call i32 @mbedtls_asn1_get_mpi(ptr noundef %14, ptr noundef %42, ptr noundef %18)
  store i32 %43, ptr %13, align 4, !tbaa !3
  %44 = icmp ne i32 %43, 0
  br i1 %44, label %45, label %48

45:                                               ; preds = %41, %37
  %46 = load i32, ptr %13, align 4, !tbaa !3
  %47 = add nsw i32 %46, -20352
  store i32 %47, ptr %13, align 4, !tbaa !3
  br label %65

48:                                               ; preds = %41
  %49 = load ptr, ptr %7, align 8, !tbaa !36
  %50 = getelementptr inbounds nuw %struct.mbedtls_ecp_keypair, ptr %49, i32 0, i32 0
  %51 = load ptr, ptr %8, align 8, !tbaa !12
  %52 = load i64, ptr %9, align 8, !tbaa !14
  %53 = load ptr, ptr %7, align 8, !tbaa !36
  %54 = getelementptr inbounds nuw %struct.mbedtls_ecp_keypair, ptr %53, i32 0, i32 2
  %55 = load ptr, ptr %12, align 8, !tbaa !16
  %56 = call i32 @mbedtls_ecdsa_verify_restartable(ptr noundef %50, ptr noundef %51, i64 noundef %52, ptr noundef %54, ptr noundef %17, ptr noundef %18, ptr noundef %55)
  store i32 %56, ptr %13, align 4, !tbaa !3
  %57 = icmp ne i32 %56, 0
  br i1 %57, label %58, label %59

58:                                               ; preds = %48
  br label %65

59:                                               ; preds = %48
  %60 = load ptr, ptr %14, align 8, !tbaa !12
  %61 = load ptr, ptr %15, align 8, !tbaa !12
  %62 = icmp ne ptr %60, %61
  br i1 %62, label %63, label %64

63:                                               ; preds = %59
  store i32 -19456, ptr %13, align 4, !tbaa !3
  br label %64

64:                                               ; preds = %63, %59
  br label %65

65:                                               ; preds = %64, %58, %45, %35, %26
  call void @mbedtls_mpi_free(ptr noundef %17)
  call void @mbedtls_mpi_free(ptr noundef %18)
  %66 = load i32, ptr %13, align 4, !tbaa !3
  call void @llvm.lifetime.end.p0(i64 16, ptr %18) #6
  call void @llvm.lifetime.end.p0(i64 16, ptr %17) #6
  call void @llvm.lifetime.end.p0(i64 8, ptr %16) #6
  call void @llvm.lifetime.end.p0(i64 8, ptr %15) #6
  call void @llvm.lifetime.end.p0(i64 8, ptr %14) #6
  call void @llvm.lifetime.end.p0(i64 4, ptr %13) #6
  ret i32 %66
}