; Function Attrs: nounwind uwtable
define hidden i32 @mbedtls_ecdsa_read_signature_restartable(ptr noundef %0, ptr noundef %1, i64 noundef %2, ptr noundef %3, i64 noundef %4, ptr readnone captures(none) %5) local_unnamed_addr #1 {
  %7 = alloca ptr, align 8
  %8 = alloca i64, align 8
  %9 = alloca %struct.mbedtls_mpi, align 8
  %10 = alloca %struct.mbedtls_mpi, align 8
  call void @llvm.lifetime.start.p0(i64 8, ptr nonnull %7) #7
  store ptr %3, ptr %7, align 8, !tbaa !20
  %11 = getelementptr inbounds nuw i8, ptr %3, i64 %4
  call void @llvm.lifetime.start.p0(i64 8, ptr nonnull %8) #7
  call void @llvm.lifetime.start.p0(i64 16, ptr nonnull %9) #7
  call void @llvm.lifetime.start.p0(i64 16, ptr nonnull %10) #7
  call void @mbedtls_mpi_init(ptr noundef nonnull %9) #7
  call void @mbedtls_mpi_init(ptr noundef nonnull %10) #7
  %12 = call i32 @mbedtls_asn1_get_tag(ptr noundef nonnull %7, ptr noundef %11, ptr noundef nonnull %8, i32 noundef 48) #7
  %.not = icmp eq i32 %12, 0
  br i1 %.not, label %15, label %13

13:                                               ; preds = %6
  %14 = add nsw i32 %12, -20352
  br label %30

15:                                               ; preds = %6
  %16 = load ptr, ptr %7, align 8, !tbaa !20
  %17 = load i64, ptr %8, align 8, !tbaa !22
  %18 = getelementptr inbounds nuw i8, ptr %16, i64 %17
  %.not21 = icmp eq ptr %18, %11
  br i1 %.not21, label %19, label %30

19:                                               ; preds = %15
  %20 = call i32 @mbedtls_asn1_get_mpi(ptr noundef nonnull %7, ptr noundef %11, ptr noundef nonnull %9) #7
  %.not22 = icmp eq i32 %20, 0
  br i1 %.not22, label %21, label %23

21:                                               ; preds = %19
  %22 = call i32 @mbedtls_asn1_get_mpi(ptr noundef nonnull %7, ptr noundef %11, ptr noundef nonnull %10) #7
  %.not23 = icmp eq i32 %22, 0
  br i1 %.not23, label %25, label %23

23:                                               ; preds = %21, %19
  %.1 = phi i32 [ %20, %19 ], [ %22, %21 ]
  %24 = add nsw i32 %.1, -20352
  br label %30

25:                                               ; preds = %21
  %26 = getelementptr inbounds nuw i8, ptr %0, i64 208
  %27 = call i32 @mbedtls_ecdsa_verify_restartable(ptr noundef %0, ptr noundef %1, i64 noundef %2, ptr noundef nonnull %26, ptr noundef nonnull %9, ptr noundef nonnull %10, ptr poison)
  %.not24 = icmp eq i32 %27, 0
  br i1 %.not24, label %28, label %30

28:                                               ; preds = %25
  %29 = load ptr, ptr %7, align 8, !tbaa !20
  %.not25 = icmp eq ptr %29, %11
  %spec.select = select i1 %.not25, i32 0, i32 -19456
  br label %30

30:                                               ; preds = %15, %28, %25, %23, %13
  %.0 = phi i32 [ %14, %13 ], [ %24, %23 ], [ %27, %25 ], [ %spec.select, %28 ], [ -20454, %15 ]
  call void @mbedtls_mpi_free(ptr noundef nonnull %9) #7
  call void @mbedtls_mpi_free(ptr noundef nonnull %10) #7
  call void @llvm.lifetime.end.p0(i64 16, ptr nonnull %10) #7
  call void @llvm.lifetime.end.p0(i64 16, ptr nonnull %9) #7
  call void @llvm.lifetime.end.p0(i64 8, ptr nonnull %8) #7
  call void @llvm.lifetime.end.p0(i64 8, ptr nonnull %7) #7
  ret i32 %.0
}